target datalayout = "e-m:e-p270:32:32-p271:32:32-p272:64:64-i64:64-i128:128-f80:128-n8:16:32:64-S128"
target triple = "x86_64-pc-linux-gnu"

%struct.___itt_global = type { [8 x i8], i64, i64, i64, i64, i64, i64, %union.pthread_mutex_t, ptr, ptr, ptr, ptr, ptr, ptr, ptr, ptr, i32, ptr, i32, ptr, ptr }
%union.pthread_mutex_t = type { %struct.__pthread_mutex_s }
%struct.__pthread_mutex_s = type { i32, i32, i32, i32, i32, i16, i16, %struct.__pthread_internal_list }
%struct.__pthread_internal_list = type { ptr, ptr }

@__itt_counter_set_value_ptr__3_0 = global ptr @_ZL32__itt_counter_set_value_init_3_0P14___itt_counterPv, align 8

; Function Attrs: mustprogress sspstrong uwtable
define internal void @_ZL32__itt_counter_set_value_init_3_0P14___itt_counterPv(ptr noundef %0, ptr noundef %1) #0 {
  %3 = alloca ptr, align 8
  %4 = alloca ptr, align 8
  store ptr %0, ptr %3, align 8, !tbaa !55
  store ptr %1, ptr %4, align 8, !tbaa !22
  %5 = load volatile i64, ptr getelementptr inbounds nuw (%struct.___itt_global, ptr @__itt__ittapi_global, i32 0, i32 4), align 8, !tbaa !3
  %6 = icmp ne i64 %5, 0
  br i1 %6, label %11, label %7

7:                                                ; preds = %2
  %8 = load ptr, ptr getelementptr inbounds nuw (%struct.___itt_global, ptr @__itt__ittapi_global, i32 0, i32 13), align 8, !tbaa !21
  %9 = icmp eq ptr %8, null
  br i1 %9, label %10, label %11

10:                                               ; preds = %7
  call void @ITT_DoOneTimeInitialization()
  br label %11

11:                                               ; preds = %10, %7, %2
  %12 = load ptr, ptr @__itt_counter_set_value_ptr__3_0, align 8, !tbaa !22
  %13 = icmp ne ptr %12, null
  br i1 %13, label %14, label %21

14:                                               ; preds = %11
  %15 = load ptr, ptr @__itt_counter_set_value_ptr__3_0, align 8, !tbaa !22
  %16 = icmp ne ptr %15, @_ZL32__itt_counter_set_value_init_3_0P14___itt_counterPv
  br i1 %16, label %17, label %21

17:                                               ; preds = %14
  %18 = load ptr, ptr @__itt_counter_set_value_ptr__3_0, align 8, !tbaa !22
  %19 = load ptr, ptr %3, align 8, !tbaa !55
  %20 = load ptr, ptr %4, align 8, !tbaa !22
  call void %18(ptr noundef %19, ptr noundef %20)
  br label %22

21:                                               ; preds = %14, %11
  br label %22

22:                                               ; preds = %21, %17
  ret void
}